target datalayout = "e-m:e-p270:32:32-p271:32:32-p272:64:64-i64:64-i128:128-f80:128-n8:16:32:64-S128"
target triple = "x86_64-pc-linux-gnu"

%struct.AVFilterContext = type { ptr, ptr, ptr, ptr, ptr, i32, ptr, ptr, i32, ptr, ptr, i32, i32, ptr, ptr, ptr, ptr, i32, ptr, i32, i32 }
%struct.ConvolveContext = type { ptr, %struct.FFFrameSync, [4 x [16 x ptr]], [4 x [16 x ptr]], [4 x ptr], [4 x ptr], [4 x i32], [4 x i32], [4 x i32], [4 x i32], [4 x i32], [4 x i32], [4 x i32], [4 x ptr], [4 x ptr], [4 x ptr], [4 x ptr], [4 x ptr], [4 x ptr], [4 x ptr], [4 x ptr], i32, i32, i32, float, i32, [4 x i32], ptr, ptr, ptr, ptr }
%struct.FFFrameSync = type { ptr, ptr, i32, %struct.AVRational, i64, ptr, ptr, i32, i32, i8, i8, ptr, i32, i32, i32, i32 }
%struct.AVRational = type { i32, i32 }
%struct.ThreadData = type { ptr, ptr, ptr, ptr, i32, i32 }
%struct.AVComplexFloat = type { float, float }

; Function Attrs: nounwind uwtable
define internal i32 @fft_vertical(ptr noundef %0, ptr noundef %1, i32 noundef %2, i32 noundef %3) #0 {
  %5 = alloca ptr, align 8
  %6 = alloca ptr, align 8
  %7 = alloca i32, align 4
  %8 = alloca i32, align 4
  %9 = alloca ptr, align 8
  %10 = alloca ptr, align 8
  %11 = alloca ptr, align 8
  %12 = alloca ptr, align 8
  %13 = alloca ptr, align 8
  %14 = alloca i32, align 4
  %15 = alloca i32, align 4
  %16 = alloca i32, align 4
  %17 = alloca i32, align 4
  %18 = alloca i32, align 4
  %19 = alloca i32, align 4
  store ptr %0, ptr %5, align 8, !tbaa !4
  store ptr %1, ptr %6, align 8, !tbaa !92
  store i32 %2, ptr %7, align 4, !tbaa !37
  store i32 %3, ptr %8, align 4, !tbaa !37
  call void @llvm.lifetime.start.p0(i64 8, ptr %9) #10
  %20 = load ptr, ptr %5, align 8, !tbaa !4
  %21 = getelementptr inbounds nuw %struct.AVFilterContext, ptr %20, i32 0, i32 9
  %22 = load ptr, ptr %21, align 8, !tbaa !9
  store ptr %22, ptr %9, align 8, !tbaa !22
  call void @llvm.lifetime.start.p0(i64 8, ptr %10) #10
  %23 = load ptr, ptr %6, align 8, !tbaa !92
  store ptr %23, ptr %10, align 8, !tbaa !93
  call void @llvm.lifetime.start.p0(i64 8, ptr %11) #10
  %24 = load ptr, ptr %10, align 8, !tbaa !93
  %25 = getelementptr inbounds nuw %struct.ThreadData, ptr %24, i32 0, i32 2
  %26 = load ptr, ptr %25, align 8, !tbaa !88
  store ptr %26, ptr %11, align 8, !tbaa !63
  call void @llvm.lifetime.start.p0(i64 8, ptr %12) #10
  %27 = load ptr, ptr %10, align 8, !tbaa !93
  %28 = getelementptr inbounds nuw %struct.ThreadData, ptr %27, i32 0, i32 1
  %29 = load ptr, ptr %28, align 8, !tbaa !87
  store ptr %29, ptr %12, align 8, !tbaa !63
  call void @llvm.lifetime.start.p0(i64 8, ptr %13) #10
  %30 = load ptr, ptr %10, align 8, !tbaa !93
  %31 = getelementptr inbounds nuw %struct.ThreadData, ptr %30, i32 0, i32 3
  %32 = load ptr, ptr %31, align 8, !tbaa !89
  store ptr %32, ptr %13, align 8, !tbaa !63
  call void @llvm.lifetime.start.p0(i64 4, ptr %14) #10
  %33 = load ptr, ptr %10, align 8, !tbaa !93
  %34 = getelementptr inbounds nuw %struct.ThreadData, ptr %33, i32 0, i32 4
  %35 = load i32, ptr %34, align 8, !tbaa !83
  store i32 %35, ptr %14, align 4, !tbaa !37
  call void @llvm.lifetime.start.p0(i64 4, ptr %15) #10
  %36 = load ptr, ptr %10, align 8, !tbaa !93
  %37 = getelementptr inbounds nuw %struct.ThreadData, ptr %36, i32 0, i32 5
  %38 = load i32, ptr %37, align 4, !tbaa !85
  store i32 %38, ptr %15, align 4, !tbaa !37
  call void @llvm.lifetime.start.p0(i64 4, ptr %16) #10
  %39 = load i32, ptr %15, align 4, !tbaa !37
  %40 = load i32, ptr %7, align 4, !tbaa !37
  %41 = mul nsw i32 %39, %40
  %42 = load i32, ptr %8, align 4, !tbaa !37
  %43 = sdiv i32 %41, %42
  store i32 %43, ptr %16, align 4, !tbaa !37
  call void @llvm.lifetime.start.p0(i64 4, ptr %17) #10
  %44 = load i32, ptr %15, align 4, !tbaa !37
  %45 = load i32, ptr %7, align 4, !tbaa !37
  %46 = add nsw i32 %45, 1
  %47 = mul nsw i32 %44, %46
  %48 = load i32, ptr %8, align 4, !tbaa !37
  %49 = sdiv i32 %47, %48
  store i32 %49, ptr %17, align 4, !tbaa !37
  call void @llvm.lifetime.start.p0(i64 4, ptr %18) #10
  call void @llvm.lifetime.start.p0(i64 4, ptr %19) #10
  %50 = load i32, ptr %16, align 4, !tbaa !37
  store i32 %50, ptr %18, align 4, !tbaa !37
  br label %51

51:                                               ; preds = %130, %4
  %52 = load i32, ptr %18, align 4, !tbaa !37
  %53 = load i32, ptr %17, align 4, !tbaa !37
  %54 = icmp slt i32 %52, %53
  br i1 %54, label %55, label %133

55:                                               ; preds = %51
  store i32 0, ptr %19, align 4, !tbaa !37
  br label %56

56:                                               ; preds = %99, %55
  %57 = load i32, ptr %19, align 4, !tbaa !37
  %58 = load i32, ptr %15, align 4, !tbaa !37
  %59 = icmp slt i32 %57, %58
  br i1 %59, label %60, label %102

60:                                               ; preds = %56
  %61 = load ptr, ptr %11, align 8, !tbaa !63
  %62 = load i32, ptr %19, align 4, !tbaa !37
  %63 = load i32, ptr %15, align 4, !tbaa !37
  %64 = mul nsw i32 %62, %63
  %65 = load i32, ptr %18, align 4, !tbaa !37
  %66 = add nsw i32 %64, %65
  %67 = sext i32 %66 to i64
  %68 = getelementptr inbounds %struct.AVComplexFloat, ptr %61, i64 %67
  %69 = getelementptr inbounds nuw %struct.AVComplexFloat, ptr %68, i32 0, i32 0
  %70 = load float, ptr %69, align 4, !tbaa !98
  %71 = load ptr, ptr %12, align 8, !tbaa !63
  %72 = load i32, ptr %18, align 4, !tbaa !37
  %73 = load i32, ptr %15, align 4, !tbaa !37
  %74 = mul nsw i32 %72, %73
  %75 = load i32, ptr %19, align 4, !tbaa !37
  %76 = add nsw i32 %74, %75
  %77 = sext i32 %76 to i64
  %78 = getelementptr inbounds %struct.AVComplexFloat, ptr %71, i64 %77
  %79 = getelementptr inbounds nuw %struct.AVComplexFloat, ptr %78, i32 0, i32 0
  store float %70, ptr %79, align 4, !tbaa !98
  %80 = load ptr, ptr %11, align 8, !tbaa !63
  %81 = load i32, ptr %19, align 4, !tbaa !37
  %82 = load i32, ptr %15, align 4, !tbaa !37
  %83 = mul nsw i32 %81, %82
  %84 = load i32, ptr %18, align 4, !tbaa !37
  %85 = add nsw i32 %83, %84
  %86 = sext i32 %85 to i64
  %87 = getelementptr inbounds %struct.AVComplexFloat, ptr %80, i64 %86
  %88 = getelementptr inbounds nuw %struct.AVComplexFloat, ptr %87, i32 0, i32 1
  %89 = load float, ptr %88, align 4, !tbaa !100
  %90 = load ptr, ptr %12, align 8, !tbaa !63
  %91 = load i32, ptr %18, align 4, !tbaa !37
  %92 = load i32, ptr %15, align 4, !tbaa !37
  %93 = mul nsw i32 %91, %92
  %94 = load i32, ptr %19, align 4, !tbaa !37
  %95 = add nsw i32 %93, %94
  %96 = sext i32 %95 to i64
  %97 = getelementptr inbounds %struct.AVComplexFloat, ptr %90, i64 %96
  %98 = getelementptr inbounds nuw %struct.AVComplexFloat, ptr %97, i32 0, i32 1
  store float %89, ptr %98, align 4, !tbaa !100
  br label %99

99:                                               ; preds = %60
  %100 = load i32, ptr %19, align 4, !tbaa !37
  %101 = add nsw i32 %100, 1
  store i32 %101, ptr %19, align 4, !tbaa !37
  br label %56, !llvm.loop !101

102:                                              ; preds = %56
  %103 = load ptr, ptr %9, align 8, !tbaa !22
  %104 = getelementptr inbounds nuw %struct.ConvolveContext, ptr %103, i32 0, i32 4
  %105 = load i32, ptr %14, align 4, !tbaa !37
  %106 = sext i32 %105 to i64
  %107 = getelementptr inbounds [4 x ptr], ptr %104, i64 0, i64 %106
  %108 = load ptr, ptr %107, align 8, !tbaa !92
  %109 = load ptr, ptr %9, align 8, !tbaa !22
  %110 = getelementptr inbounds nuw %struct.ConvolveContext, ptr %109, i32 0, i32 2
  %111 = load i32, ptr %14, align 4, !tbaa !37
  %112 = sext i32 %111 to i64
  %113 = getelementptr inbounds [4 x [16 x ptr]], ptr %110, i64 0, i64 %112
  %114 = load i32, ptr %7, align 4, !tbaa !37
  %115 = sext i32 %114 to i64
  %116 = getelementptr inbounds [16 x ptr], ptr %113, i64 0, i64 %115
  %117 = load ptr, ptr %116, align 8, !tbaa !95
  %118 = load ptr, ptr %13, align 8, !tbaa !63
  %119 = load i32, ptr %18, align 4, !tbaa !37
  %120 = load i32, ptr %15, align 4, !tbaa !37
  %121 = mul nsw i32 %119, %120
  %122 = sext i32 %121 to i64
  %123 = getelementptr inbounds %struct.AVComplexFloat, ptr %118, i64 %122
  %124 = load ptr, ptr %12, align 8, !tbaa !63
  %125 = load i32, ptr %18, align 4, !tbaa !37
  %126 = load i32, ptr %15, align 4, !tbaa !37
  %127 = mul nsw i32 %125, %126
  %128 = sext i32 %127 to i64
  %129 = getelementptr inbounds %struct.AVComplexFloat, ptr %124, i64 %128
  call void %108(ptr noundef %117, ptr noundef %123, ptr noundef %129, i64 noundef 8)
  br label %130

130:                                              ; preds = %102
  %131 = load i32, ptr %18, align 4, !tbaa !37
  %132 = add nsw i32 %131, 1
  store i32 %132, ptr %18, align 4, !tbaa !37
  br label %51, !llvm.loop !102

133:                                              ; preds = %51
  call void @llvm.lifetime.end.p0(i64 4, ptr %19) #10
  call void @llvm.lifetime.end.p0(i64 4, ptr %18) #10
  call void @llvm.lifetime.end.p0(i64 4, ptr %17) #10
  call void @llvm.lifetime.end.p0(i64 4, ptr %16) #10
  call void @llvm.lifetime.end.p0(i64 4, ptr %15) #10
  call void @llvm.lifetime.end.p0(i64 4, ptr %14) #10
  call void @llvm.lifetime.end.p0(i64 8, ptr %13) #10
  call void @llvm.lifetime.end.p0(i64 8, ptr %12) #10
  call void @llvm.lifetime.end.p0(i64 8, ptr %11) #10
  call void @llvm.lifetime.end.p0(i64 8, ptr %10) #10
  call void @llvm.lifetime.end.p0(i64 8, ptr %9) #10
  ret i32 0
}