; Function Attrs: nounwind uwtable
define internal noundef i32 @fft_vertical(ptr noundef readonly captures(none) %0, ptr noundef readonly captures(none) %1, i32 noundef %2, i32 noundef %3) #0 {
  %5 = getelementptr inbounds nuw i8, ptr %1, i64 16
  %6 = load ptr, ptr %5, align 8, !tbaa !78
  %7 = getelementptr inbounds nuw i8, ptr %1, i64 8
  %8 = load ptr, ptr %7, align 8, !tbaa !77
  %9 = getelementptr inbounds nuw i8, ptr %1, i64 24
  %10 = load ptr, ptr %9, align 8, !tbaa !79
  %11 = getelementptr inbounds nuw i8, ptr %1, i64 36
  %12 = load i32, ptr %11, align 4, !tbaa !75
  %13 = mul nsw i32 %12, %2
  %14 = sdiv i32 %13, %3
  %15 = add nsw i32 %2, 1
  %16 = mul nsw i32 %12, %15
  %17 = sdiv i32 %16, %3
  %18 = icmp slt i32 %14, %17
  br i1 %18, label %.preheader.lr.ph, label %._crit_edge50

.preheader.lr.ph:                                 ; preds = %4
  %19 = getelementptr inbounds nuw i8, ptr %1, i64 32
  %20 = load i32, ptr %19, align 8, !tbaa !73
  %21 = getelementptr inbounds nuw i8, ptr %0, i64 72
  %22 = load ptr, ptr %21, align 8, !tbaa !4
  %23 = icmp sgt i32 %12, 0
  %24 = getelementptr inbounds nuw i8, ptr %22, i64 1128
  %25 = sext i32 %20 to i64
  %26 = getelementptr inbounds [4 x ptr], ptr %24, i64 0, i64 %25
  %27 = getelementptr inbounds nuw i8, ptr %22, i64 104
  %28 = sext i32 %2 to i64
  %29 = getelementptr inbounds [4 x [16 x ptr]], ptr %27, i64 0, i64 %25, i64 %28
  br i1 %23, label %.preheader.us.preheader, label %.preheader.preheader

.preheader.preheader:                             ; preds = %.preheader.lr.ph
  %30 = sext i32 %14 to i64
  %31 = sext i32 %12 to i64
  br label %.preheader

.preheader.us.preheader:                          ; preds = %.preheader.lr.ph
  %32 = zext nneg i32 %12 to i64
  %33 = sext i32 %14 to i64
  %wide.trip.count = zext nneg i32 %12 to i64
  br label %.preheader.us

.preheader.us:                                    ; preds = %.preheader.us.preheader, %._crit_edge.us
  %indvars.iv57 = phi i64 [ %33, %.preheader.us.preheader ], [ %indvars.iv.next58, %._crit_edge.us ]
  %34 = mul nsw i64 %indvars.iv57, %32
  %invariant.gep = getelementptr %struct.AVComplexFloat, ptr %6, i64 %indvars.iv57
  %invariant.gep63 = getelementptr %struct.AVComplexFloat, ptr %8, i64 %34
  br label %35

35:                                               ; preds = %.preheader.us, %35
  %indvars.iv53 = phi i64 [ 0, %.preheader.us ], [ %indvars.iv.next54, %35 ]
  %36 = mul nuw nsw i64 %indvars.iv53, %32
  %gep = getelementptr %struct.AVComplexFloat, ptr %invariant.gep, i64 %36
  %37 = load float, ptr %gep, align 4, !tbaa !86
  %gep64 = getelementptr %struct.AVComplexFloat, ptr %invariant.gep63, i64 %indvars.iv53
  store float %37, ptr %gep64, align 4, !tbaa !86
  %38 = getelementptr inbounds nuw i8, ptr %gep, i64 4
  %39 = load float, ptr %38, align 4, !tbaa !88
  %40 = getelementptr inbounds nuw i8, ptr %gep64, i64 4
  store float %39, ptr %40, align 4, !tbaa !88
  %indvars.iv.next54 = add nuw nsw i64 %indvars.iv53, 1
  %exitcond56.not = icmp eq i64 %indvars.iv.next54, %wide.trip.count
  br i1 %exitcond56.not, label %._crit_edge.us, label %35, !llvm.loop !89

._crit_edge.us:                                   ; preds = %35
  %41 = load ptr, ptr %26, align 8, !tbaa !82
  %42 = load ptr, ptr %29, align 8, !tbaa !83
  %43 = getelementptr inbounds %struct.AVComplexFloat, ptr %10, i64 %34
  %44 = getelementptr inbounds %struct.AVComplexFloat, ptr %8, i64 %34
  tail call void %41(ptr noundef %42, ptr noundef %43, ptr noundef %44, i64 noundef 8) #14
  %indvars.iv.next58 = add nsw i64 %indvars.iv57, 1
  %lftr.wideiv60 = trunc i64 %indvars.iv.next58 to i32
  %exitcond61.not = icmp eq i32 %17, %lftr.wideiv60
  br i1 %exitcond61.not, label %._crit_edge50, label %.preheader.us, !llvm.loop !90

.preheader:                                       ; preds = %.preheader.preheader, %.preheader
  %indvars.iv = phi i64 [ %30, %.preheader.preheader ], [ %indvars.iv.next, %.preheader ]
  %45 = load ptr, ptr %26, align 8, !tbaa !82
  %46 = load ptr, ptr %29, align 8, !tbaa !83
  %47 = mul nsw i64 %indvars.iv, %31
  %48 = getelementptr inbounds %struct.AVComplexFloat, ptr %10, i64 %47
  %49 = getelementptr inbounds %struct.AVComplexFloat, ptr %8, i64 %47
  tail call void %45(ptr noundef %46, ptr noundef %48, ptr noundef %49, i64 noundef 8) #14
  %indvars.iv.next = add nsw i64 %indvars.iv, 1
  %lftr.wideiv = trunc i64 %indvars.iv.next to i32
  %exitcond.not = icmp eq i32 %17, %lftr.wideiv
  br i1 %exitcond.not, label %._crit_edge50, label %.preheader, !llvm.loop !90

._crit_edge50:                                    ; preds = %.preheader, %._crit_edge.us, %4
  ret i32 0
}